target datalayout = "e-m:e-p270:32:32-p271:32:32-p272:64:64-i64:64-i128:128-f80:128-n8:16:32:64-S128"
target triple = "x86_64-pc-linux-gnu"

%class.QColor = type <{ i32, %"union.QColor::CT", [2 x i8] }>
%"union.QColor::CT" = type { %struct.anon }
%struct.anon = type { i16, i16, i16, i16, i16 }
%class.QString = type { %struct.QArrayDataPointer }
%struct.QArrayDataPointer = type { ptr, ptr, i64 }
%class.QModelIndex = type { i32, i32, i64, ptr }
%class.ColoringRulesDialog = type { %class.GeometryStateDialog, ptr, ptr, ptr, %class.ColoringRulesModel, %class.ColoringRulesDelegate, %class.QMap }
%class.GeometryStateDialog = type { %class.QDialog, %class.QString }
%class.QDialog = type { %class.QWidget }
%class.QWidget = type { %class.QObject, %class.QPaintDevice.base, ptr }
%class.QObject = type { ptr, %class.QScopedPointer }
%class.QScopedPointer = type { ptr }
%class.QPaintDevice.base = type <{ ptr, i16 }>
%class.ColoringRulesModel = type { %class.QAbstractItemModel, ptr, ptr, %class.QColor, %class.QColor, %class.QList }
%class.QAbstractItemModel = type { %class.QObject }
%class.QList = type { %struct.QArrayDataPointer.4 }
%struct.QArrayDataPointer.4 = type { ptr, ptr, i64 }
%class.ColoringRulesDelegate = type { %class.QStyledItemDelegate }
%class.QStyledItemDelegate = type { %class.QAbstractItemDelegate }
%class.QAbstractItemDelegate = type { %class.QObject }
%class.QMap = type { %"class.QtPrivate::QExplicitlySharedDataPointerV2" }
%"class.QtPrivate::QExplicitlySharedDataPointerV2" = type { ptr }
%class.Ui_ColoringRulesDialog = type { ptr, ptr, ptr, ptr, ptr, ptr, ptr, ptr, ptr, ptr, ptr, ptr, ptr, ptr }
%class.QVariant = type { %"struct.QVariant::Private" }
%"struct.QVariant::Private" = type { %union.anon, i64 }
%union.anon = type { ptr, [16 x i8] }

; Function Attrs: mustprogress nounwind uwtable
define linkonce_odr noundef zeroext i1 @_ZNK11QModelIndex7isValidEv(ptr noundef nonnull align 8 dereferenceable(24) %0) #1 comdat align 2 {
  %2 = alloca ptr, align 8
  store ptr %0, ptr %2, align 8
  %3 = load ptr, ptr %2, align 8
  %4 = getelementptr inbounds %class.QModelIndex, ptr %3, i32 0, i32 0
  %5 = load i32, ptr %4, align 8
  %6 = icmp sge i32 %5, 0
  br i1 %6, label %7, label %15

7:                                                ; preds = %1
  %8 = getelementptr inbounds %class.QModelIndex, ptr %3, i32 0, i32 1
  %9 = load i32, ptr %8, align 4
  %10 = icmp sge i32 %9, 0
  br i1 %10, label %11, label %15

11:                                               ; preds = %7
  %12 = getelementptr inbounds %class.QModelIndex, ptr %3, i32 0, i32 3
  %13 = load ptr, ptr %12, align 8
  %14 = icmp ne ptr %13, null
  br label %15

15:                                               ; preds = %11, %7, %1
  %16 = phi i1 [ false, %7 ], [ false, %1 ], [ %14, %11 ]
  ret i1 %16
}

; Function Attrs: mustprogress uwtable
define void @_ZN19ColoringRulesDialog12colorChangedEbRK6QColor(ptr noundef nonnull align 8 dereferenceable(200) %0, i1 noundef zeroext %1, ptr noundef nonnull align 4 dereferenceable(14) %2) #0 align 2 personality ptr @__gxx_personality_v0 {
  %4 = alloca ptr, align 8
  %5 = alloca i8, align 1
  %6 = alloca ptr, align 8
  %7 = alloca %class.QModelIndex, align 8
  %8 = alloca %class.QVariant, align 8
  %9 = alloca ptr, align 8
  %10 = alloca i32, align 4
  store ptr %0, ptr %4, align 8
  %11 = zext i1 %1 to i8
  store i8 %11, ptr %5, align 1
  store ptr %2, ptr %6, align 8
  %12 = load ptr, ptr %4, align 8
  %13 = getelementptr inbounds %class.ColoringRulesDialog, ptr %12, i32 0, i32 1
  %14 = load ptr, ptr %13, align 8
  %15 = getelementptr inbounds %class.Ui_ColoringRulesDialog, ptr %14, i32 0, i32 1
  %16 = load ptr, ptr %15, align 8
  call void @_ZNK17QAbstractItemView12currentIndexEv(ptr dead_on_unwind writable sret(%class.QModelIndex) align 8 %7, ptr noundef nonnull align 8 dereferenceable(40) %16)
  %17 = call noundef zeroext i1 @_ZNK11QModelIndex7isValidEv(ptr noundef nonnull align 8 dereferenceable(24) %7) #17
  br i1 %17, label %19, label %18

18:                                               ; preds = %3
  br label %27

19:                                               ; preds = %3
  %20 = getelementptr inbounds %class.ColoringRulesDialog, ptr %12, i32 0, i32 4
  %21 = load ptr, ptr %6, align 8
  call void @_ZNK6QColorcv8QVariantEv(ptr dead_on_unwind writable sret(%class.QVariant) align 8 %8, ptr noundef nonnull align 4 dereferenceable(14) %21)
  %22 = load i8, ptr %5, align 1
  %23 = trunc i8 %22 to i1
  %24 = select i1 %23, i32 9, i32 8
  %25 = invoke noundef zeroext i1 @_ZN18ColoringRulesModel7setDataERK11QModelIndexRK8QVarianti(ptr noundef nonnull align 8 dereferenceable(88) %20, ptr noundef nonnull align 8 dereferenceable(24) %7, ptr noundef nonnull align 8 dereferenceable(32) %8, i32 noundef %24)
          to label %26 unwind label %28

26:                                               ; preds = %19
  call void @_ZN8QVariantD1Ev(ptr noundef nonnull align 8 dereferenceable(32) %8) #17
  call void @_ZN19ColoringRulesDialog15setColorButtonsER11QModelIndex(ptr noundef nonnull align 8 dereferenceable(200) %12, ptr noundef nonnull align 8 dereferenceable(24) %7)
  br label %27

27:                                               ; preds = %26, %18
  ret void

28:                                               ; preds = %19
  %29 = landingpad { ptr, i32 }
          cleanup
  %30 = extractvalue { ptr, i32 } %29, 0
  store ptr %30, ptr %9, align 8
  %31 = extractvalue { ptr, i32 } %29, 1
  store i32 %31, ptr %10, align 4
  call void @_ZN8QVariantD1Ev(ptr noundef nonnull align 8 dereferenceable(32) %8) #17
  br label %32

32:                                               ; preds = %28
  %33 = load ptr, ptr %9, align 8
  %34 = load i32, ptr %10, align 4
  %35 = insertvalue { ptr, i32 } poison, ptr %33, 0
  %36 = insertvalue { ptr, i32 } %35, i32 %34, 1
  resume { ptr, i32 } %36
}