; Function Attrs: mustprogress uwtable
define void @_ZN19ColoringRulesDialog12colorChangedEbRK6QColor(ptr noundef nonnull align 8 dereferenceable(200) %0, i1 noundef zeroext %1, ptr noundef nonnull align 4 dereferenceable(14) %2) #0 align 2 personality ptr @__gxx_personality_v0 {
  %4 = alloca %class.QModelIndex, align 8
  %5 = alloca %class.QVariant, align 8
  %6 = getelementptr inbounds i8, ptr %0, i64 64
  %7 = load ptr, ptr %6, align 8
  %8 = getelementptr inbounds i8, ptr %7, i64 8
  %9 = load ptr, ptr %8, align 8
  call void @_ZNK17QAbstractItemView12currentIndexEv(ptr dead_on_unwind nonnull writable sret(%class.QModelIndex) align 8 %4, ptr noundef nonnull align 8 dereferenceable(40) %9)
  %10 = load i32, ptr %4, align 8
  %11 = icmp sgt i32 %10, -1
  %12 = getelementptr inbounds i8, ptr %4, i64 4
  %13 = load i32, ptr %12, align 4
  %14 = icmp sgt i32 %13, -1
  %or.cond.i = select i1 %11, i1 %14, i1 false
  %15 = getelementptr inbounds i8, ptr %4, i64 16
  %16 = load ptr, ptr %15, align 8
  %17 = icmp ne ptr %16, null
  %or.cond = select i1 %or.cond.i, i1 %17, i1 false
  br i1 %or.cond, label %18, label %_ZNK11QModelIndex7isValidEv.exit.thread

18:                                               ; preds = %3
  %19 = getelementptr inbounds i8, ptr %0, i64 88
  call void @_ZNK6QColorcv8QVariantEv(ptr dead_on_unwind nonnull writable sret(%class.QVariant) align 8 %5, ptr noundef nonnull align 4 dereferenceable(14) %2)
  %20 = select i1 %1, i32 9, i32 8
  %21 = invoke noundef zeroext i1 @_ZN18ColoringRulesModel7setDataERK11QModelIndexRK8QVarianti(ptr noundef nonnull align 8 dereferenceable(88) %19, ptr noundef nonnull align 8 dereferenceable(24) %4, ptr noundef nonnull align 8 dereferenceable(32) %5, i32 noundef %20)
          to label %22 unwind label %23

22:                                               ; preds = %18
  call void @_ZN8QVariantD1Ev(ptr noundef nonnull align 8 dereferenceable(32) %5) #19
  call void @_ZN19ColoringRulesDialog15setColorButtonsER11QModelIndex(ptr noundef nonnull align 8 dereferenceable(200) %0, ptr noundef nonnull align 8 dereferenceable(24) %4)
  br label %_ZNK11QModelIndex7isValidEv.exit.thread

_ZNK11QModelIndex7isValidEv.exit.thread:          ; preds = %3, %22
  ret void

23:                                               ; preds = %18
  %24 = landingpad { ptr, i32 }
          cleanup
  call void @_ZN8QVariantD1Ev(ptr noundef nonnull align 8 dereferenceable(32) %5) #19
  resume { ptr, i32 } %24
}